target datalayout = "e-m:e-p270:32:32-p271:32:32-p272:64:64-i64:64-i128:128-f80:128-n8:16:32:64-S128"
target triple = "x86_64-pc-linux-gnu"

%struct.ARKodeMemRec = type { ptr, double, ptr, i32, i32, double, double, ptr, i32, double, ptr, i32, i32, ptr, ptr, i32, ptr, ptr, i32, ptr, ptr, ptr, ptr, ptr, ptr, ptr, ptr, ptr, ptr, ptr, ptr, ptr, ptr, ptr, i32, ptr, ptr, i32, ptr, i32, ptr, ptr, ptr, ptr, ptr, ptr, ptr, ptr, ptr, ptr, ptr, ptr, ptr, ptr, ptr, ptr, ptr, ptr, ptr, ptr, ptr, ptr, ptr, ptr, ptr, ptr, i32, ptr, ptr, ptr, ptr, ptr, ptr, ptr, i32, ptr, ptr, ptr, i32, ptr, ptr, ptr, ptr, ptr, ptr, ptr, i32, i32, i32, i32, double, double, double, double, double, double, double, double, double, double, i32, ptr, i64, i32, i32, i32, i32, i64, i64, i32, i64, i64, i64, i64, i64, i64, i64, double, double, double, double, double, i32, double, double, i32, i32, i32, i32, i32, i32, i32, i32, ptr, i32, ptr, ptr, ptr, ptr, i32, i32, i32 }

; Function Attrs: nounwind uwtable
define i32 @arkYddNorm(ptr noundef %0, double noundef %1, ptr noundef %2) #0 {
  %4 = alloca i32, align 4
  %5 = alloca ptr, align 8
  %6 = alloca double, align 8
  %7 = alloca ptr, align 8
  %8 = alloca i32, align 4
  %9 = alloca i32, align 4
  store ptr %0, ptr %5, align 8, !tbaa !11
  store double %1, ptr %6, align 8, !tbaa !9
  store ptr %2, ptr %7, align 8, !tbaa !104
  call void @llvm.lifetime.start.p0(i64 4, ptr %8) #10
  %10 = load double, ptr %6, align 8, !tbaa !9
  %11 = load ptr, ptr %5, align 8, !tbaa !11
  %12 = getelementptr inbounds nuw %struct.ARKodeMemRec, ptr %11, i32 0, i32 77
  %13 = load ptr, ptr %12, align 8, !tbaa !133
  %14 = load ptr, ptr %5, align 8, !tbaa !11
  %15 = getelementptr inbounds nuw %struct.ARKodeMemRec, ptr %14, i32 0, i32 76
  %16 = load ptr, ptr %15, align 8, !tbaa !40
  %17 = load ptr, ptr %5, align 8, !tbaa !11
  %18 = getelementptr inbounds nuw %struct.ARKodeMemRec, ptr %17, i32 0, i32 75
  %19 = load ptr, ptr %18, align 8, !tbaa !106
  call void @N_VLinearSum(double noundef %10, ptr noundef %13, double noundef 1.000000e+00, ptr noundef %16, ptr noundef %19)
  %20 = load ptr, ptr %5, align 8, !tbaa !11
  %21 = getelementptr inbounds nuw %struct.ARKodeMemRec, ptr %20, i32 0, i32 21
  %22 = load ptr, ptr %21, align 8, !tbaa !132
  %23 = load ptr, ptr %5, align 8, !tbaa !11
  %24 = load ptr, ptr %5, align 8, !tbaa !11
  %25 = getelementptr inbounds nuw %struct.ARKodeMemRec, ptr %24, i32 0, i32 98
  %26 = load double, ptr %25, align 8, !tbaa !22
  %27 = load double, ptr %6, align 8, !tbaa !9
  %28 = fadd double %26, %27
  %29 = load ptr, ptr %5, align 8, !tbaa !11
  %30 = getelementptr inbounds nuw %struct.ARKodeMemRec, ptr %29, i32 0, i32 75
  %31 = load ptr, ptr %30, align 8, !tbaa !106
  %32 = load ptr, ptr %5, align 8, !tbaa !11
  %33 = getelementptr inbounds nuw %struct.ARKodeMemRec, ptr %32, i32 0, i32 79
  %34 = load ptr, ptr %33, align 8, !tbaa !85
  %35 = call i32 %22(ptr noundef %23, double noundef %28, ptr noundef %31, ptr noundef %34, i32 noundef 2)
  store i32 %35, ptr %8, align 4, !tbaa !38
  %36 = load i32, ptr %8, align 4, !tbaa !38
  %37 = icmp ne i32 %36, 0
  br i1 %37, label %38, label %39

38:                                               ; preds = %3
  store i32 -8, ptr %4, align 4
  store i32 1, ptr %9, align 4
  br label %67

39:                                               ; preds = %3
  %40 = load double, ptr %6, align 8, !tbaa !9
  %41 = fdiv double 1.000000e+00, %40
  %42 = load ptr, ptr %5, align 8, !tbaa !11
  %43 = getelementptr inbounds nuw %struct.ARKodeMemRec, ptr %42, i32 0, i32 79
  %44 = load ptr, ptr %43, align 8, !tbaa !85
  %45 = load double, ptr %6, align 8, !tbaa !9
  %46 = fdiv double -1.000000e+00, %45
  %47 = load ptr, ptr %5, align 8, !tbaa !11
  %48 = getelementptr inbounds nuw %struct.ARKodeMemRec, ptr %47, i32 0, i32 77
  %49 = load ptr, ptr %48, align 8, !tbaa !133
  %50 = load ptr, ptr %5, align 8, !tbaa !11
  %51 = getelementptr inbounds nuw %struct.ARKodeMemRec, ptr %50, i32 0, i32 79
  %52 = load ptr, ptr %51, align 8, !tbaa !85
  call void @N_VLinearSum(double noundef %41, ptr noundef %44, double noundef %46, ptr noundef %49, ptr noundef %52)
  %53 = load ptr, ptr %5, align 8, !tbaa !11
  %54 = getelementptr inbounds nuw %struct.ARKodeMemRec, ptr %53, i32 0, i32 76
  %55 = load ptr, ptr %54, align 8, !tbaa !40
  %56 = load ptr, ptr %5, align 8, !tbaa !11
  %57 = getelementptr inbounds nuw %struct.ARKodeMemRec, ptr %56, i32 0, i32 75
  %58 = load ptr, ptr %57, align 8, !tbaa !106
  call void @N_VScale(double noundef 1.000000e+00, ptr noundef %55, ptr noundef %58)
  %59 = load ptr, ptr %5, align 8, !tbaa !11
  %60 = getelementptr inbounds nuw %struct.ARKodeMemRec, ptr %59, i32 0, i32 79
  %61 = load ptr, ptr %60, align 8, !tbaa !85
  %62 = load ptr, ptr %5, align 8, !tbaa !11
  %63 = getelementptr inbounds nuw %struct.ARKodeMemRec, ptr %62, i32 0, i32 72
  %64 = load ptr, ptr %63, align 8, !tbaa !56
  %65 = call double @N_VWrmsNorm(ptr noundef %61, ptr noundef %64)
  %66 = load ptr, ptr %7, align 8, !tbaa !104
  store double %65, ptr %66, align 8, !tbaa !9
  store i32 0, ptr %4, align 4
  store i32 1, ptr %9, align 4
  br label %67

67:                                               ; preds = %39, %38
  call void @llvm.lifetime.end.p0(i64 4, ptr %8) #10
  %68 = load i32, ptr %4, align 4
  ret i32 %68
}