; Function Attrs: nounwind uwtable
define range(i32 -8, 1) i32 @arkYddNorm(ptr noundef %0, double noundef %1, ptr noundef writeonly captures(none) %2) local_unnamed_addr #0 {
  %4 = getelementptr inbounds nuw i8, ptr %0, i64 600
  %5 = load ptr, ptr %4, align 8, !tbaa !141
  %6 = getelementptr inbounds nuw i8, ptr %0, i64 592
  %7 = load ptr, ptr %6, align 8, !tbaa !34
  %8 = getelementptr inbounds nuw i8, ptr %0, i64 584
  %9 = load ptr, ptr %8, align 8, !tbaa !106
  tail call void @N_VLinearSum(double noundef %1, ptr noundef %5, double noundef 1.000000e+00, ptr noundef %7, ptr noundef %9) #16
  %10 = getelementptr inbounds nuw i8, ptr %0, i64 152
  %11 = load ptr, ptr %10, align 8, !tbaa !140
  %12 = getelementptr inbounds nuw i8, ptr %0, i64 752
  %13 = load double, ptr %12, align 8, !tbaa !17
  %14 = fadd double %1, %13
  %15 = load ptr, ptr %8, align 8, !tbaa !106
  %16 = getelementptr inbounds nuw i8, ptr %0, i64 616
  %17 = load ptr, ptr %16, align 8, !tbaa !91
  %18 = tail call i32 %11(ptr noundef %0, double noundef %14, ptr noundef %15, ptr noundef %17, i32 noundef 2) #16
  %.not = icmp eq i32 %18, 0
  br i1 %.not, label %19, label %30

19:                                               ; preds = %3
  %20 = fdiv double 1.000000e+00, %1
  %21 = load ptr, ptr %16, align 8, !tbaa !91
  %22 = fdiv double -1.000000e+00, %1
  %23 = load ptr, ptr %4, align 8, !tbaa !141
  tail call void @N_VLinearSum(double noundef %20, ptr noundef %21, double noundef %22, ptr noundef %23, ptr noundef %21) #16
  %24 = load ptr, ptr %6, align 8, !tbaa !34
  %25 = load ptr, ptr %8, align 8, !tbaa !106
  tail call void @N_VScale(double noundef 1.000000e+00, ptr noundef %24, ptr noundef %25) #16
  %26 = load ptr, ptr %16, align 8, !tbaa !91
  %27 = getelementptr inbounds nuw i8, ptr %0, i64 560
  %28 = load ptr, ptr %27, align 8, !tbaa !56
  %29 = tail call double @N_VWrmsNorm(ptr noundef %26, ptr noundef %28) #16
  store double %29, ptr %2, align 8, !tbaa !113
  br label %30

30:                                               ; preds = %3, %19
  %.0 = phi i32 [ 0, %19 ], [ -8, %3 ]
  ret i32 %.0
}